target datalayout = "e-m:e-p270:32:32-p271:32:32-p272:64:64-i64:64-i128:128-f80:128-n8:16:32:64-S128"
target triple = "x86_64-pc-linux-gnu"

%"class.std::ios_base" = type { ptr, i64, i64, i32, i32, i32, ptr, %"struct.std::ios_base::_Words", [8 x %"struct.std::ios_base::_Words"], i32, ptr, %"class.std::locale" }
%"struct.std::ios_base::_Words" = type { ptr, i64 }
%"class.std::locale" = type { ptr }

@.str.1 = private unnamed_addr constant [19 x i8] c"<ExposureContrast \00", align 1
@.str.2 = private unnamed_addr constant [11 x i8] c"direction=\00", align 1
@.str.3 = private unnamed_addr constant [9 x i8] c", style=\00", align 1
@.str.4 = private unnamed_addr constant [12 x i8] c", exposure=\00", align 1
@.str.5 = private unnamed_addr constant [12 x i8] c", contrast=\00", align 1
@.str.6 = private unnamed_addr constant [9 x i8] c", gamma=\00", align 1
@.str.7 = private unnamed_addr constant [9 x i8] c", pivot=\00", align 1
@.str.8 = private unnamed_addr constant [19 x i8] c", logExposureStep=\00", align 1
@.str.9 = private unnamed_addr constant [14 x i8] c", logMidGray=\00", align 1
@.str.10 = private unnamed_addr constant [18 x i8] c", exposureDynamic\00", align 1
@.str.11 = private unnamed_addr constant [18 x i8] c", contrastDynamic\00", align 1
@.str.12 = private unnamed_addr constant [15 x i8] c", gammaDynamic\00", align 1
@.str.13 = private unnamed_addr constant [2 x i8] c">\00", align 1

; Function Attrs: inlinehint mustprogress nounwind uwtable
define linkonce_odr noundef i32 @_ZStorSt12_Ios_IostateS_(i32 noundef %0, i32 noundef %1) #13 comdat {
  %3 = alloca i32, align 4
  %4 = alloca i32, align 4
  store i32 %0, ptr %3, align 4, !tbaa !159
  store i32 %1, ptr %4, align 4, !tbaa !159
  %5 = load i32, ptr %3, align 4, !tbaa !159
  %6 = load i32, ptr %4, align 4, !tbaa !159
  %7 = or i32 %5, %6
  ret i32 %7
}

; Function Attrs: mustprogress nounwind uwtable
define available_externally noundef i32 @_ZNKSt9basic_iosIcSt11char_traitsIcEE7rdstateEv(ptr noundef nonnull align 8 dereferenceable(264) %0) #4 align 2 {
  %2 = alloca ptr, align 8
  store ptr %0, ptr %2, align 8, !tbaa !157
  %3 = load ptr, ptr %2, align 8
  %4 = getelementptr inbounds nuw %"class.std::ios_base", ptr %3, i32 0, i32 5
  %5 = load i32, ptr %4, align 8, !tbaa !161
  ret i32 %5
}

; Function Attrs: mustprogress nounwind uwtable
define linkonce_odr hidden noundef i64 @_ZNSt11char_traitsIcE6lengthEPKc(ptr noundef %0) #4 comdat align 2 {
  %2 = alloca ptr, align 8
  store ptr %0, ptr %2, align 8, !tbaa !34
  %3 = load ptr, ptr %2, align 8, !tbaa !34
  %4 = call i64 @strlen(ptr noundef %3) #22
  ret i64 %4
}

; Function Attrs: mustprogress uwtable
define available_externally void @_ZNSt9basic_iosIcSt11char_traitsIcEE8setstateESt12_Ios_Iostate(ptr noundef nonnull align 8 dereferenceable(264) %0, i32 noundef %1) #0 align 2 {
  %3 = alloca ptr, align 8
  %4 = alloca i32, align 4
  store ptr %0, ptr %3, align 8, !tbaa !157
  store i32 %1, ptr %4, align 4, !tbaa !159
  %5 = load ptr, ptr %3, align 8
  %6 = call noundef i32 @_ZNKSt9basic_iosIcSt11char_traitsIcEE7rdstateEv(ptr noundef nonnull align 8 dereferenceable(264) %5)
  %7 = load i32, ptr %4, align 4, !tbaa !159
  %8 = call noundef i32 @_ZStorSt12_Ios_IostateS_(i32 noundef %6, i32 noundef %7)
  call void @_ZNSt9basic_iosIcSt11char_traitsIcEE5clearESt12_Ios_Iostate(ptr noundef nonnull align 8 dereferenceable(264) %5, i32 noundef %8)
  ret void
}

; Function Attrs: mustprogress uwtable
define available_externally noundef nonnull align 8 dereferenceable(8) ptr @_ZNSolsEd(ptr noundef nonnull align 8 dereferenceable(8) %0, double noundef %1) #0 align 2 {
  %3 = alloca ptr, align 8
  %4 = alloca double, align 8
  store ptr %0, ptr %3, align 8, !tbaa !85
  store double %1, ptr %4, align 8, !tbaa !68
  %5 = load ptr, ptr %3, align 8
  %6 = load double, ptr %4, align 8, !tbaa !68
  %7 = call noundef nonnull align 8 dereferenceable(8) ptr @_ZNSo9_M_insertIdEERSoT_(ptr noundef nonnull align 8 dereferenceable(8) %5, double noundef %6)
  ret ptr %7
}

; Function Attrs: inlinehint mustprogress uwtable
define available_externally noundef nonnull align 8 dereferenceable(8) ptr @_ZStlsISt11char_traitsIcEERSt13basic_ostreamIcT_ES5_PKc(ptr noundef nonnull align 8 dereferenceable(8) %0, ptr noundef %1) #11 {
  %3 = alloca ptr, align 8
  %4 = alloca ptr, align 8
  store ptr %0, ptr %3, align 8, !tbaa !85
  store ptr %1, ptr %4, align 8, !tbaa !34
  %5 = load ptr, ptr %4, align 8, !tbaa !34
  %6 = icmp ne ptr %5, null
  br i1 %6, label %13, label %7

7:                                                ; preds = %2
  %8 = load ptr, ptr %3, align 8, !tbaa !85
  %9 = load ptr, ptr %8, align 8, !tbaa !8
  %10 = getelementptr i8, ptr %9, i64 -24
  %11 = load i64, ptr %10, align 8
  %12 = getelementptr inbounds i8, ptr %8, i64 %11
  call void @_ZNSt9basic_iosIcSt11char_traitsIcEE8setstateESt12_Ios_Iostate(ptr noundef nonnull align 8 dereferenceable(264) %12, i32 noundef 1)
  br label %19

13:                                               ; preds = %2
  %14 = load ptr, ptr %3, align 8, !tbaa !85
  %15 = load ptr, ptr %4, align 8, !tbaa !34
  %16 = load ptr, ptr %4, align 8, !tbaa !34
  %17 = call noundef i64 @_ZNSt11char_traitsIcE6lengthEPKc(ptr noundef %16)
  %18 = call noundef nonnull align 8 dereferenceable(8) ptr @_ZSt16__ostream_insertIcSt11char_traitsIcEERSt13basic_ostreamIT_T0_ES6_PKS3_l(ptr noundef nonnull align 8 dereferenceable(8) %14, ptr noundef %15, i64 noundef %17)
  br label %19

19:                                               ; preds = %13, %7
  %20 = load ptr, ptr %3, align 8, !tbaa !85
  ret ptr %20
}

; Function Attrs: mustprogress uwtable
define noundef nonnull align 8 dereferenceable(8) ptr @_ZN19OpenColorIO_v2_5devlsERSoRKNS_25ExposureContrastTransformE(ptr noundef nonnull align 8 dereferenceable(8) %0, ptr noundef nonnull align 8 dereferenceable(8) %1) #0 {
  %3 = alloca ptr, align 8
  %4 = alloca ptr, align 8
  store ptr %0, ptr %3, align 8, !tbaa !85
  store ptr %1, ptr %4, align 8, !tbaa !10
  %5 = load ptr, ptr %3, align 8, !tbaa !85
  %6 = call noundef nonnull align 8 dereferenceable(8) ptr @_ZStlsISt11char_traitsIcEERSt13basic_ostreamIcT_ES5_PKc(ptr noundef nonnull align 8 dereferenceable(8) %5, ptr noundef @.str.1)
  %7 = load ptr, ptr %3, align 8, !tbaa !85
  %8 = call noundef nonnull align 8 dereferenceable(8) ptr @_ZStlsISt11char_traitsIcEERSt13basic_ostreamIcT_ES5_PKc(ptr noundef nonnull align 8 dereferenceable(8) %7, ptr noundef @.str.2)
  %9 = load ptr, ptr %4, align 8, !tbaa !10
  %10 = load ptr, ptr %9, align 8, !tbaa !8
  %11 = getelementptr inbounds ptr, ptr %10, i64 1
  %12 = load ptr, ptr %11, align 8
  %13 = call noundef i32 %12(ptr noundef nonnull align 8 dereferenceable(8) %9) #22
  %14 = call noundef ptr @_ZN19OpenColorIO_v2_5dev26TransformDirectionToStringENS_18TransformDirectionE(i32 noundef %13)
  %15 = call noundef nonnull align 8 dereferenceable(8) ptr @_ZStlsISt11char_traitsIcEERSt13basic_ostreamIcT_ES5_PKc(ptr noundef nonnull align 8 dereferenceable(8) %8, ptr noundef %14)
  %16 = load ptr, ptr %3, align 8, !tbaa !85
  %17 = call noundef nonnull align 8 dereferenceable(8) ptr @_ZStlsISt11char_traitsIcEERSt13basic_ostreamIcT_ES5_PKc(ptr noundef nonnull align 8 dereferenceable(8) %16, ptr noundef @.str.3)
  %18 = load ptr, ptr %4, align 8, !tbaa !10
  %19 = load ptr, ptr %18, align 8, !tbaa !8
  %20 = getelementptr inbounds ptr, ptr %19, i64 10
  %21 = load ptr, ptr %20, align 8
  %22 = call noundef i32 %21(ptr noundef nonnull align 8 dereferenceable(8) %18)
  %23 = call noundef ptr @_ZN19OpenColorIO_v2_5dev29ExposureContrastStyleToStringENS_21ExposureContrastStyleE(i32 noundef %22)
  %24 = call noundef nonnull align 8 dereferenceable(8) ptr @_ZStlsISt11char_traitsIcEERSt13basic_ostreamIcT_ES5_PKc(ptr noundef nonnull align 8 dereferenceable(8) %17, ptr noundef %23)
  %25 = load ptr, ptr %3, align 8, !tbaa !85
  %26 = call noundef nonnull align 8 dereferenceable(8) ptr @_ZStlsISt11char_traitsIcEERSt13basic_ostreamIcT_ES5_PKc(ptr noundef nonnull align 8 dereferenceable(8) %25, ptr noundef @.str.4)
  %27 = load ptr, ptr %4, align 8, !tbaa !10
  %28 = load ptr, ptr %27, align 8, !tbaa !8
  %29 = getelementptr inbounds ptr, ptr %28, i64 12
  %30 = load ptr, ptr %29, align 8
  %31 = call noundef double %30(ptr noundef nonnull align 8 dereferenceable(8) %27)
  %32 = call noundef nonnull align 8 dereferenceable(8) ptr @_ZNSolsEd(ptr noundef nonnull align 8 dereferenceable(8) %26, double noundef %31)
  %33 = load ptr, ptr %3, align 8, !tbaa !85
  %34 = call noundef nonnull align 8 dereferenceable(8) ptr @_ZStlsISt11char_traitsIcEERSt13basic_ostreamIcT_ES5_PKc(ptr noundef nonnull align 8 dereferenceable(8) %33, ptr noundef @.str.5)
  %35 = load ptr, ptr %4, align 8, !tbaa !10
  %36 = load ptr, ptr %35, align 8, !tbaa !8
  %37 = getelementptr inbounds ptr, ptr %36, i64 17
  %38 = load ptr, ptr %37, align 8
  %39 = call noundef double %38(ptr noundef nonnull align 8 dereferenceable(8) %35)
  %40 = call noundef nonnull align 8 dereferenceable(8) ptr @_ZNSolsEd(ptr noundef nonnull align 8 dereferenceable(8) %34, double noundef %39)
  %41 = load ptr, ptr %3, align 8, !tbaa !85
  %42 = call noundef nonnull align 8 dereferenceable(8) ptr @_ZStlsISt11char_traitsIcEERSt13basic_ostreamIcT_ES5_PKc(ptr noundef nonnull align 8 dereferenceable(8) %41, ptr noundef @.str.6)
  %43 = load ptr, ptr %4, align 8, !tbaa !10
  %44 = load ptr, ptr %43, align 8, !tbaa !8
  %45 = getelementptr inbounds ptr, ptr %44, i64 22
  %46 = load ptr, ptr %45, align 8
  %47 = call noundef double %46(ptr noundef nonnull align 8 dereferenceable(8) %43)
  %48 = call noundef nonnull align 8 dereferenceable(8) ptr @_ZNSolsEd(ptr noundef nonnull align 8 dereferenceable(8) %42, double noundef %47)
  %49 = load ptr, ptr %3, align 8, !tbaa !85
  %50 = call noundef nonnull align 8 dereferenceable(8) ptr @_ZStlsISt11char_traitsIcEERSt13basic_ostreamIcT_ES5_PKc(ptr noundef nonnull align 8 dereferenceable(8) %49, ptr noundef @.str.7)
  %51 = load ptr, ptr %4, align 8, !tbaa !10
  %52 = load ptr, ptr %51, align 8, !tbaa !8
  %53 = getelementptr inbounds ptr, ptr %52, i64 27
  %54 = load ptr, ptr %53, align 8
  %55 = call noundef double %54(ptr noundef nonnull align 8 dereferenceable(8) %51)
  %56 = call noundef nonnull align 8 dereferenceable(8) ptr @_ZNSolsEd(ptr noundef nonnull align 8 dereferenceable(8) %50, double noundef %55)
  %57 = load ptr, ptr %3, align 8, !tbaa !85
  %58 = call noundef nonnull align 8 dereferenceable(8) ptr @_ZStlsISt11char_traitsIcEERSt13basic_ostreamIcT_ES5_PKc(ptr noundef nonnull align 8 dereferenceable(8) %57, ptr noundef @.str.8)
  %59 = load ptr, ptr %4, align 8, !tbaa !10
  %60 = load ptr, ptr %59, align 8, !tbaa !8
  %61 = getelementptr inbounds ptr, ptr %60, i64 29
  %62 = load ptr, ptr %61, align 8
  %63 = call noundef double %62(ptr noundef nonnull align 8 dereferenceable(8) %59)
  %64 = call noundef nonnull align 8 dereferenceable(8) ptr @_ZNSolsEd(ptr noundef nonnull align 8 dereferenceable(8) %58, double noundef %63)
  %65 = load ptr, ptr %3, align 8, !tbaa !85
  %66 = call noundef nonnull align 8 dereferenceable(8) ptr @_ZStlsISt11char_traitsIcEERSt13basic_ostreamIcT_ES5_PKc(ptr noundef nonnull align 8 dereferenceable(8) %65, ptr noundef @.str.9)
  %67 = load ptr, ptr %4, align 8, !tbaa !10
  %68 = load ptr, ptr %67, align 8, !tbaa !8
  %69 = getelementptr inbounds ptr, ptr %68, i64 31
  %70 = load ptr, ptr %69, align 8
  %71 = call noundef double %70(ptr noundef nonnull align 8 dereferenceable(8) %67)
  %72 = call noundef nonnull align 8 dereferenceable(8) ptr @_ZNSolsEd(ptr noundef nonnull align 8 dereferenceable(8) %66, double noundef %71)
  %73 = load ptr, ptr %4, align 8, !tbaa !10
  %74 = load ptr, ptr %73, align 8, !tbaa !8
  %75 = getelementptr inbounds ptr, ptr %74, i64 14
  %76 = load ptr, ptr %75, align 8
  %77 = call noundef zeroext i1 %76(ptr noundef nonnull align 8 dereferenceable(8) %73)
  br i1 %77, label %78, label %81

78:                                               ; preds = %2
  %79 = load ptr, ptr %3, align 8, !tbaa !85
  %80 = call noundef nonnull align 8 dereferenceable(8) ptr @_ZStlsISt11char_traitsIcEERSt13basic_ostreamIcT_ES5_PKc(ptr noundef nonnull align 8 dereferenceable(8) %79, ptr noundef @.str.10)
  br label %81

81:                                               ; preds = %78, %2
  %82 = load ptr, ptr %4, align 8, !tbaa !10
  %83 = load ptr, ptr %82, align 8, !tbaa !8
  %84 = getelementptr inbounds ptr, ptr %83, i64 19
  %85 = load ptr, ptr %84, align 8
  %86 = call noundef zeroext i1 %85(ptr noundef nonnull align 8 dereferenceable(8) %82)
  br i1 %86, label %87, label %90

87:                                               ; preds = %81
  %88 = load ptr, ptr %3, align 8, !tbaa !85
  %89 = call noundef nonnull align 8 dereferenceable(8) ptr @_ZStlsISt11char_traitsIcEERSt13basic_ostreamIcT_ES5_PKc(ptr noundef nonnull align 8 dereferenceable(8) %88, ptr noundef @.str.11)
  br label %90

90:                                               ; preds = %87, %81
  %91 = load ptr, ptr %4, align 8, !tbaa !10
  %92 = load ptr, ptr %91, align 8, !tbaa !8
  %93 = getelementptr inbounds ptr, ptr %92, i64 24
  %94 = load ptr, ptr %93, align 8
  %95 = call noundef zeroext i1 %94(ptr noundef nonnull align 8 dereferenceable(8) %91)
  br i1 %95, label %96, label %99

96:                                               ; preds = %90
  %97 = load ptr, ptr %3, align 8, !tbaa !85
  %98 = call noundef nonnull align 8 dereferenceable(8) ptr @_ZStlsISt11char_traitsIcEERSt13basic_ostreamIcT_ES5_PKc(ptr noundef nonnull align 8 dereferenceable(8) %97, ptr noundef @.str.12)
  br label %99

99:                                               ; preds = %96, %90
  %100 = load ptr, ptr %3, align 8, !tbaa !85
  %101 = call noundef nonnull align 8 dereferenceable(8) ptr @_ZStlsISt11char_traitsIcEERSt13basic_ostreamIcT_ES5_PKc(ptr noundef nonnull align 8 dereferenceable(8) %100, ptr noundef @.str.13)
  %102 = load ptr, ptr %3, align 8, !tbaa !85
  ret ptr %102
}