; Function Attrs: mustprogress uwtable
define noundef nonnull align 8 dereferenceable(8) ptr @_ZN19OpenColorIO_v2_5devlsERSoRKNS_25ExposureContrastTransformE(ptr noundef nonnull returned align 8 dereferenceable(8) %0, ptr noundef nonnull align 8 dereferenceable(8) %1) local_unnamed_addr #0 {
  %3 = tail call noundef nonnull align 8 dereferenceable(8) ptr @_ZSt16__ostream_insertIcSt11char_traitsIcEERSt13basic_ostreamIT_T0_ES6_PKS3_l(ptr noundef nonnull align 8 dereferenceable(8) %0, ptr noundef nonnull @.str.1, i64 noundef 18)
  %4 = tail call noundef nonnull align 8 dereferenceable(8) ptr @_ZSt16__ostream_insertIcSt11char_traitsIcEERSt13basic_ostreamIT_T0_ES6_PKS3_l(ptr noundef nonnull align 8 dereferenceable(8) %0, ptr noundef nonnull @.str.2, i64 noundef 10)
  %5 = load ptr, ptr %1, align 8, !tbaa !3
  %6 = getelementptr inbounds nuw i8, ptr %5, i64 8
  %7 = load ptr, ptr %6, align 8
  %8 = tail call noundef i32 %7(ptr noundef nonnull align 8 dereferenceable(8) %1) #20
  %9 = tail call noundef ptr @_ZN19OpenColorIO_v2_5dev26TransformDirectionToStringENS_18TransformDirectionE(i32 noundef %8)
  %.not.i = icmp eq ptr %9, null
  br i1 %.not.i, label %10, label %18

10:                                               ; preds = %2
  %11 = load ptr, ptr %0, align 8, !tbaa !3
  %12 = getelementptr i8, ptr %11, i64 -24
  %13 = load i64, ptr %12, align 8
  %14 = getelementptr inbounds i8, ptr %0, i64 %13
  %15 = getelementptr inbounds nuw i8, ptr %14, i64 32
  %16 = load i32, ptr %15, align 8, !tbaa !95
  %17 = or i32 %16, 1
  tail call void @_ZNSt9basic_iosIcSt11char_traitsIcEE5clearESt12_Ios_Iostate(ptr noundef nonnull align 8 dereferenceable(264) %14, i32 noundef %17)
  br label %_ZStlsISt11char_traitsIcEERSt13basic_ostreamIcT_ES5_PKc.exit

18:                                               ; preds = %2
  %19 = tail call noundef i64 @strlen(ptr noundef nonnull dereferenceable(1) %9) #20
  %20 = tail call noundef nonnull align 8 dereferenceable(8) ptr @_ZSt16__ostream_insertIcSt11char_traitsIcEERSt13basic_ostreamIT_T0_ES6_PKS3_l(ptr noundef nonnull align 8 dereferenceable(8) %0, ptr noundef nonnull %9, i64 noundef %19)
  br label %_ZStlsISt11char_traitsIcEERSt13basic_ostreamIcT_ES5_PKc.exit

_ZStlsISt11char_traitsIcEERSt13basic_ostreamIcT_ES5_PKc.exit: ; preds = %10, %18
  %21 = tail call noundef nonnull align 8 dereferenceable(8) ptr @_ZSt16__ostream_insertIcSt11char_traitsIcEERSt13basic_ostreamIT_T0_ES6_PKS3_l(ptr noundef nonnull align 8 dereferenceable(8) %0, ptr noundef nonnull @.str.3, i64 noundef 8)
  %22 = load ptr, ptr %1, align 8, !tbaa !3
  %23 = getelementptr inbounds nuw i8, ptr %22, i64 80
  %24 = load ptr, ptr %23, align 8
  %25 = tail call noundef i32 %24(ptr noundef nonnull align 8 dereferenceable(8) %1)
  %26 = tail call noundef ptr @_ZN19OpenColorIO_v2_5dev29ExposureContrastStyleToStringENS_21ExposureContrastStyleE(i32 noundef %25)
  %.not.i25 = icmp eq ptr %26, null
  br i1 %.not.i25, label %27, label %35

27:                                               ; preds = %_ZStlsISt11char_traitsIcEERSt13basic_ostreamIcT_ES5_PKc.exit
  %28 = load ptr, ptr %0, align 8, !tbaa !3
  %29 = getelementptr i8, ptr %28, i64 -24
  %30 = load i64, ptr %29, align 8
  %31 = getelementptr inbounds i8, ptr %0, i64 %30
  %32 = getelementptr inbounds nuw i8, ptr %31, i64 32
  %33 = load i32, ptr %32, align 8, !tbaa !95
  %34 = or i32 %33, 1
  tail call void @_ZNSt9basic_iosIcSt11char_traitsIcEE5clearESt12_Ios_Iostate(ptr noundef nonnull align 8 dereferenceable(264) %31, i32 noundef %34)
  br label %_ZStlsISt11char_traitsIcEERSt13basic_ostreamIcT_ES5_PKc.exit26

35:                                               ; preds = %_ZStlsISt11char_traitsIcEERSt13basic_ostreamIcT_ES5_PKc.exit
  %36 = tail call noundef i64 @strlen(ptr noundef nonnull dereferenceable(1) %26) #20
  %37 = tail call noundef nonnull align 8 dereferenceable(8) ptr @_ZSt16__ostream_insertIcSt11char_traitsIcEERSt13basic_ostreamIT_T0_ES6_PKS3_l(ptr noundef nonnull align 8 dereferenceable(8) %0, ptr noundef nonnull %26, i64 noundef %36)
  br label %_ZStlsISt11char_traitsIcEERSt13basic_ostreamIcT_ES5_PKc.exit26

_ZStlsISt11char_traitsIcEERSt13basic_ostreamIcT_ES5_PKc.exit26: ; preds = %27, %35
  %38 = tail call noundef nonnull align 8 dereferenceable(8) ptr @_ZSt16__ostream_insertIcSt11char_traitsIcEERSt13basic_ostreamIT_T0_ES6_PKS3_l(ptr noundef nonnull align 8 dereferenceable(8) %0, ptr noundef nonnull @.str.4, i64 noundef 11)
  %39 = load ptr, ptr %1, align 8, !tbaa !3
  %40 = getelementptr inbounds nuw i8, ptr %39, i64 96
  %41 = load ptr, ptr %40, align 8
  %42 = tail call noundef double %41(ptr noundef nonnull align 8 dereferenceable(8) %1)
  %43 = tail call noundef nonnull align 8 dereferenceable(8) ptr @_ZNSo9_M_insertIdEERSoT_(ptr noundef nonnull align 8 dereferenceable(8) %0, double noundef %42)
  %44 = tail call noundef nonnull align 8 dereferenceable(8) ptr @_ZSt16__ostream_insertIcSt11char_traitsIcEERSt13basic_ostreamIT_T0_ES6_PKS3_l(ptr noundef nonnull align 8 dereferenceable(8) %0, ptr noundef nonnull @.str.5, i64 noundef 11)
  %45 = load ptr, ptr %1, align 8, !tbaa !3
  %46 = getelementptr inbounds nuw i8, ptr %45, i64 136
  %47 = load ptr, ptr %46, align 8
  %48 = tail call noundef double %47(ptr noundef nonnull align 8 dereferenceable(8) %1)
  %49 = tail call noundef nonnull align 8 dereferenceable(8) ptr @_ZNSo9_M_insertIdEERSoT_(ptr noundef nonnull align 8 dereferenceable(8) %0, double noundef %48)
  %50 = tail call noundef nonnull align 8 dereferenceable(8) ptr @_ZSt16__ostream_insertIcSt11char_traitsIcEERSt13basic_ostreamIT_T0_ES6_PKS3_l(ptr noundef nonnull align 8 dereferenceable(8) %0, ptr noundef nonnull @.str.6, i64 noundef 8)
  %51 = load ptr, ptr %1, align 8, !tbaa !3
  %52 = getelementptr inbounds nuw i8, ptr %51, i64 176
  %53 = load ptr, ptr %52, align 8
  %54 = tail call noundef double %53(ptr noundef nonnull align 8 dereferenceable(8) %1)
  %55 = tail call noundef nonnull align 8 dereferenceable(8) ptr @_ZNSo9_M_insertIdEERSoT_(ptr noundef nonnull align 8 dereferenceable(8) %0, double noundef %54)
  %56 = tail call noundef nonnull align 8 dereferenceable(8) ptr @_ZSt16__ostream_insertIcSt11char_traitsIcEERSt13basic_ostreamIT_T0_ES6_PKS3_l(ptr noundef nonnull align 8 dereferenceable(8) %0, ptr noundef nonnull @.str.7, i64 noundef 8)
  %57 = load ptr, ptr %1, align 8, !tbaa !3
  %58 = getelementptr inbounds nuw i8, ptr %57, i64 216
  %59 = load ptr, ptr %58, align 8
  %60 = tail call noundef double %59(ptr noundef nonnull align 8 dereferenceable(8) %1)
  %61 = tail call noundef nonnull align 8 dereferenceable(8) ptr @_ZNSo9_M_insertIdEERSoT_(ptr noundef nonnull align 8 dereferenceable(8) %0, double noundef %60)
  %62 = tail call noundef nonnull align 8 dereferenceable(8) ptr @_ZSt16__ostream_insertIcSt11char_traitsIcEERSt13basic_ostreamIT_T0_ES6_PKS3_l(ptr noundef nonnull align 8 dereferenceable(8) %0, ptr noundef nonnull @.str.8, i64 noundef 18)
  %63 = load ptr, ptr %1, align 8, !tbaa !3
  %64 = getelementptr inbounds nuw i8, ptr %63, i64 232
  %65 = load ptr, ptr %64, align 8
  %66 = tail call noundef double %65(ptr noundef nonnull align 8 dereferenceable(8) %1)
  %67 = tail call noundef nonnull align 8 dereferenceable(8) ptr @_ZNSo9_M_insertIdEERSoT_(ptr noundef nonnull align 8 dereferenceable(8) %0, double noundef %66)
  %68 = tail call noundef nonnull align 8 dereferenceable(8) ptr @_ZSt16__ostream_insertIcSt11char_traitsIcEERSt13basic_ostreamIT_T0_ES6_PKS3_l(ptr noundef nonnull align 8 dereferenceable(8) %0, ptr noundef nonnull @.str.9, i64 noundef 13)
  %69 = load ptr, ptr %1, align 8, !tbaa !3
  %70 = getelementptr inbounds nuw i8, ptr %69, i64 248
  %71 = load ptr, ptr %70, align 8
  %72 = tail call noundef double %71(ptr noundef nonnull align 8 dereferenceable(8) %1)
  %73 = tail call noundef nonnull align 8 dereferenceable(8) ptr @_ZNSo9_M_insertIdEERSoT_(ptr noundef nonnull align 8 dereferenceable(8) %0, double noundef %72)
  %74 = load ptr, ptr %1, align 8, !tbaa !3
  %75 = getelementptr inbounds nuw i8, ptr %74, i64 112
  %76 = load ptr, ptr %75, align 8
  %77 = tail call noundef zeroext i1 %76(ptr noundef nonnull align 8 dereferenceable(8) %1)
  br i1 %77, label %78, label %80

78:                                               ; preds = %_ZStlsISt11char_traitsIcEERSt13basic_ostreamIcT_ES5_PKc.exit26
  %79 = tail call noundef nonnull align 8 dereferenceable(8) ptr @_ZSt16__ostream_insertIcSt11char_traitsIcEERSt13basic_ostreamIT_T0_ES6_PKS3_l(ptr noundef nonnull align 8 dereferenceable(8) %0, ptr noundef nonnull @.str.10, i64 noundef 17)
  br label %80

80:                                               ; preds = %78, %_ZStlsISt11char_traitsIcEERSt13basic_ostreamIcT_ES5_PKc.exit26
  %81 = load ptr, ptr %1, align 8, !tbaa !3
  %82 = getelementptr inbounds nuw i8, ptr %81, i64 152
  %83 = load ptr, ptr %82, align 8
  %84 = tail call noundef zeroext i1 %83(ptr noundef nonnull align 8 dereferenceable(8) %1)
  br i1 %84, label %85, label %87

85:                                               ; preds = %80
  %86 = tail call noundef nonnull align 8 dereferenceable(8) ptr @_ZSt16__ostream_insertIcSt11char_traitsIcEERSt13basic_ostreamIT_T0_ES6_PKS3_l(ptr noundef nonnull align 8 dereferenceable(8) %0, ptr noundef nonnull @.str.11, i64 noundef 17)
  br label %87

87:                                               ; preds = %85, %80
  %88 = load ptr, ptr %1, align 8, !tbaa !3
  %89 = getelementptr inbounds nuw i8, ptr %88, i64 192
  %90 = load ptr, ptr %89, align 8
  %91 = tail call noundef zeroext i1 %90(ptr noundef nonnull align 8 dereferenceable(8) %1)
  br i1 %91, label %92, label %94

92:                                               ; preds = %87
  %93 = tail call noundef nonnull align 8 dereferenceable(8) ptr @_ZSt16__ostream_insertIcSt11char_traitsIcEERSt13basic_ostreamIT_T0_ES6_PKS3_l(ptr noundef nonnull align 8 dereferenceable(8) %0, ptr noundef nonnull @.str.12, i64 noundef 14)
  br label %94

94:                                               ; preds = %92, %87
  %95 = tail call noundef nonnull align 8 dereferenceable(8) ptr @_ZSt16__ostream_insertIcSt11char_traitsIcEERSt13basic_ostreamIT_T0_ES6_PKS3_l(ptr noundef nonnull align 8 dereferenceable(8) %0, ptr noundef nonnull @.str.13, i64 noundef 1)
  ret ptr %0
}